target datalayout = "e-m:e-p270:32:32-p271:32:32-p272:64:64-i64:64-i128:128-f80:128-n8:16:32:64-S128"
target triple = "x86_64-pc-linux-gnu"

%struct.hwloc_topology = type { i32, i32, i32, ptr, ptr, i64, [20 x i32], [20 x i32], i64, i64, i32, ptr, i64, ptr, i64, [6 x %struct.hwloc_special_level_s], ptr, ptr, %struct.hwloc_binding_hooks, %struct.hwloc_topology_support, %struct.hwloc_infos_s, ptr, ptr, i32, ptr, ptr, i32, i32, ptr, i32, i32, ptr, i32, i32, i32, [5 x float], i32, ptr, ptr, i32, i32, ptr, i32, %struct.hwloc_numanode_attr_s, i32, i32, ptr, i64, i32, ptr, ptr, ptr }
%struct.hwloc_special_level_s = type { i32, ptr, ptr, ptr }
%struct.hwloc_binding_hooks = type { ptr, ptr, ptr, ptr, ptr, ptr, ptr, ptr, ptr, ptr, ptr, ptr, ptr, ptr, ptr, ptr, ptr, ptr, ptr, ptr, ptr, ptr, ptr, ptr }
%struct.hwloc_topology_support = type { ptr, ptr, ptr, ptr }
%struct.hwloc_infos_s = type { ptr, i32, i32 }
%struct.hwloc_numanode_attr_s = type { i64, i32, ptr }

; Function Attrs: nounwind uwtable
define i32 @hwloc_distances_get_by_type(ptr noundef %0, i32 noundef %1, ptr noundef %2, ptr noundef %3, i64 noundef %4, i64 noundef %5) #0 {
  %7 = alloca i32, align 4
  %8 = alloca ptr, align 8
  %9 = alloca i32, align 4
  %10 = alloca ptr, align 8
  %11 = alloca ptr, align 8
  %12 = alloca i64, align 8
  %13 = alloca i64, align 8
  store ptr %0, ptr %8, align 8, !tbaa !3
  store i32 %1, ptr %9, align 4, !tbaa !38
  store ptr %2, ptr %10, align 8, !tbaa !106
  store ptr %3, ptr %11, align 8, !tbaa !121
  store i64 %4, ptr %12, align 8, !tbaa !80
  store i64 %5, ptr %13, align 8, !tbaa !80
  %14 = load i64, ptr %13, align 8, !tbaa !80
  %15 = icmp ne i64 %14, 0
  br i1 %15, label %22, label %16

16:                                               ; preds = %6
  %17 = load ptr, ptr %8, align 8, !tbaa !3
  %18 = getelementptr inbounds nuw %struct.hwloc_topology, ptr %17, i32 0, i32 8
  %19 = load i64, ptr %18, align 8, !tbaa !67
  %20 = and i64 %19, 2
  %21 = icmp ne i64 %20, 0
  br i1 %21, label %24, label %22

22:                                               ; preds = %16, %6
  %23 = call ptr @__errno_location() #17
  store i32 22, ptr %23, align 4, !tbaa !38
  store i32 -1, ptr %7, align 4
  br label %32

24:                                               ; preds = %16
  %25 = load ptr, ptr %8, align 8, !tbaa !3
  %26 = load i32, ptr %9, align 4, !tbaa !38
  %27 = load ptr, ptr %10, align 8, !tbaa !106
  %28 = load ptr, ptr %11, align 8, !tbaa !121
  %29 = load i64, ptr %12, align 8, !tbaa !80
  %30 = load i64, ptr %13, align 8, !tbaa !80
  %31 = call i32 @hwloc__distances_get(ptr noundef %25, ptr noundef null, i32 noundef %26, ptr noundef %27, ptr noundef %28, i64 noundef %29, i64 noundef %30)
  store i32 %31, ptr %7, align 4
  br label %32

32:                                               ; preds = %24, %22
  %33 = load i32, ptr %7, align 4
  ret i32 %33
}