; Function Attrs: nounwind uwtable
define range(i32 -1, 1) i32 @hwloc_distances_get_by_type(ptr noundef %0, i32 noundef %1, ptr noundef captures(none) %2, ptr noundef captures(none) %3, i64 noundef %4, i64 noundef %5) local_unnamed_addr #1 {
  %.not = icmp eq i64 %5, 0
  br i1 %.not, label %7, label %11

7:                                                ; preds = %6
  %8 = getelementptr inbounds nuw i8, ptr %0, i64 200
  %9 = load i64, ptr %8, align 8, !tbaa !63
  %10 = and i64 %9, 2
  %.not9 = icmp eq i64 %10, 0
  br i1 %.not9, label %11, label %13

11:                                               ; preds = %7, %6
  %12 = tail call ptr @__errno_location() #30
  store i32 22, ptr %12, align 4, !tbaa !3
  br label %15

13:                                               ; preds = %7
  %14 = tail call fastcc i32 @hwloc__distances_get(ptr noundef nonnull %0, ptr noundef null, i32 noundef %1, ptr noundef %2, ptr noundef %3, i64 noundef %4)
  br label %15

15:                                               ; preds = %13, %11
  %.0 = phi i32 [ -1, %11 ], [ %14, %13 ]
  ret i32 %.0
}